; ModuleID = '21/1849.c'
source_filename = "21/1849.c"
target datalayout = "e-m:e-p270:32:32-p271:32:32-p272:64:64-i64:64-f80:128-n8:16:32:64-S128"
target triple = "x86_64-pc-linux-gnu"

@.str = private unnamed_addr constant [3 x i8] c"%d\00", align 1
@.str.1 = private unnamed_addr constant [6 x i8] c"%d,%d\00", align 1

; Function Attrs: noinline nounwind uwtable
define dso_local float @k(float %0) #0 {
  %2 = alloca float, align 4
  %3 = alloca float, align 4
  store float %0, float* %3, align 4
  %4 = load float, float* %3, align 4
  %5 = fcmp oge float %4, 0.000000e+00
  br i1 %5, label %6, label %8

6:                                                ; preds = %1
  %7 = load float, float* %3, align 4
  store float %7, float* %2, align 4
  br label %11

8:                                                ; preds = %1
  %9 = load float, float* %3, align 4
  %10 = fneg float %9
  store float %10, float* %2, align 4
  br label %11

11:                                               ; preds = %8, %6
  %12 = load float, float* %2, align 4
  ret float %12
}

; Function Attrs: noinline nounwind uwtable
define dso_local void @main() #0 {
  %1 = alloca i32, align 4
  %2 = alloca [400 x i32], align 16
  %3 = alloca i32, align 4
  %4 = alloca i32, align 4
  %5 = alloca i32, align 4
  %6 = alloca i32, align 4
  %7 = alloca i32, align 4
  %8 = alloca float, align 4
  store i32 0, i32* %3, align 4
  store i32 0, i32* %4, align 4
  store i32 0, i32* %6, align 4
  %9 = call i32 (i8*, ...) @__isoc99_scanf(i8* getelementptr inbounds ([3 x i8], [3 x i8]* @.str, i64 0, i64 0), i32* %1)
  store i32 0, i32* %7, align 4
  br label %10

10:                                               ; preds = %25, %0
  %11 = load i32, i32* %7, align 4
  %12 = load i32, i32* %1, align 4
  %13 = icmp slt i32 %11, %12
  br i1 %13, label %14, label %28

14:                                               ; preds = %10
  %15 = load i32, i32* %7, align 4
  %16 = sext i32 %15 to i64
  %17 = getelementptr inbounds [400 x i32], [400 x i32]* %2, i64 0, i64 %16
  %18 = call i32 (i8*, ...) @__isoc99_scanf(i8* getelementptr inbounds ([3 x i8], [3 x i8]* @.str, i64 0, i64 0), i32* %17)
  %19 = load i32, i32* %3, align 4
  %20 = load i32, i32* %7, align 4
  %21 = sext i32 %20 to i64
  %22 = getelementptr inbounds [400 x i32], [400 x i32]* %2, i64 0, i64 %21
  %23 = load i32, i32* %22, align 4
  %24 = add nsw i32 %19, %23
  store i32 %24, i32* %3, align 4
  br label %25

25:                                               ; preds = %14
  %26 = load i32, i32* %7, align 4
  %27 = add nsw i32 %26, 1
  store i32 %27, i32* %7, align 4
  br label %10

28:                                               ; preds = %10
  %29 = load i32, i32* %3, align 4
  %30 = sitofp i32 %29 to float
  %31 = load i32, i32* %1, align 4
  %32 = sitofp i32 %31 to float
  %33 = fdiv float %30, %32
  store float %33, float* %8, align 4
  store i32 0, i32* %7, align 4
  %34 = getelementptr inbounds [400 x i32], [400 x i32]* %2, i64 0, i64 0
  %35 = load i32, i32* %34, align 16
  store i32 %35, i32* %5, align 4
  br label %36

36:                                               ; preds = %65, %28
  %37 = load i32, i32* %7, align 4
  %38 = load i32, i32* %1, align 4
  %39 = icmp slt i32 %37, %38
  br i1 %39, label %40, label %68

40:                                               ; preds = %36
  %41 = load i32, i32* %7, align 4
  %42 = sext i32 %41 to i64
  %43 = getelementptr inbounds [400 x i32], [400 x i32]* %2, i64 0, i64 %42
  %44 = load i32, i32* %43, align 4
  %45 = load i32, i32* %4, align 4
  %46 = icmp sgt i32 %44, %45
  br i1 %46, label %47, label %52

47:                                               ; preds = %40
  %48 = load i32, i32* %7, align 4
  %49 = sext i32 %48 to i64
  %50 = getelementptr inbounds [400 x i32], [400 x i32]* %2, i64 0, i64 %49
  %51 = load i32, i32* %50, align 4
  store i32 %51, i32* %4, align 4
  br label %52

52:                                               ; preds = %47, %40
  %53 = load i32, i32* %7, align 4
  %54 = sext i32 %53 to i64
  %55 = getelementptr inbounds [400 x i32], [400 x i32]* %2, i64 0, i64 %54
  %56 = load i32, i32* %55, align 4
  %57 = load i32, i32* %5, align 4
  %58 = icmp slt i32 %56, %57
  br i1 %58, label %59, label %64

59:                                               ; preds = %52
  %60 = load i32, i32* %7, align 4
  %61 = sext i32 %60 to i64
  %62 = getelementptr inbounds [400 x i32], [400 x i32]* %2, i64 0, i64 %61
  %63 = load i32, i32* %62, align 4
  store i32 %63, i32* %5, align 4
  br label %64

64:                                               ; preds = %59, %52
  br label %65

65:                                               ; preds = %64
  %66 = load i32, i32* %7, align 4
  %67 = add nsw i32 %66, 1
  store i32 %67, i32* %7, align 4
  br label %36

68:                                               ; preds = %36
  %69 = load i32, i32* %4, align 4
  %70 = sitofp i32 %69 to float
  %71 = load float, float* %8, align 4
  %72 = fsub float %70, %71
  %73 = load i32, i32* %5, align 4
  %74 = sitofp i32 %73 to float
  %75 = fneg float %74
  %76 = load float, float* %8, align 4
  %77 = fadd float %75, %76
  %78 = fcmp ogt float %72, %77
  br i1 %78, label %79, label %82

79:                                               ; preds = %68
  %80 = load i32, i32* %4, align 4
  %81 = call i32 (i8*, ...) @printf(i8* getelementptr inbounds ([3 x i8], [3 x i8]* @.str, i64 0, i64 0), i32 %80)
  br label %82

82:                                               ; preds = %79, %68
  %83 = load i32, i32* %4, align 4
  %84 = sitofp i32 %83 to float
  %85 = load float, float* %8, align 4
  %86 = fsub float %84, %85
  %87 = load i32, i32* %5, align 4
  %88 = sitofp i32 %87 to float
  %89 = fneg float %88
  %90 = load float, float* %8, align 4
  %91 = fadd float %89, %90
  %92 = fcmp olt float %86, %91
  br i1 %92, label %93, label %96

93:                                               ; preds = %82
  %94 = load i32, i32* %5, align 4
  %95 = call i32 (i8*, ...) @printf(i8* getelementptr inbounds ([3 x i8], [3 x i8]* @.str, i64 0, i64 0), i32 %94)
  br label %96

96:                                               ; preds = %93, %82
  %97 = load i32, i32* %4, align 4
  %98 = sitofp i32 %97 to float
  %99 = load float, float* %8, align 4
  %100 = fsub float %98, %99
  %101 = load i32, i32* %5, align 4
  %102 = sitofp i32 %101 to float
  %103 = fneg float %102
  %104 = load float, float* %8, align 4
  %105 = fadd float %103, %104
  %106 = fcmp oeq float %100, %105
  br i1 %106, label %107, label %111

107:                                              ; preds = %96
  %108 = load i32, i32* %5, align 4
  %109 = load i32, i32* %4, align 4
  %110 = call i32 (i8*, ...) @printf(i8* getelementptr inbounds ([6 x i8], [6 x i8]* @.str.1, i64 0, i64 0), i32 %108, i32 %109)
  br label %111

111:                                              ; preds = %107, %96
  ret void
}

declare dso_local i32 @__isoc99_scanf(i8*, ...) #1

declare dso_local i32 @printf(i8*, ...) #1


!llvm.module.flags = !{!0}
!llvm.ident = !{!1}

!0 = !{i32 1, !"wchar_size", i32 4}
!1 = !{!"clang version 10.0.0-4ubuntu1 "}
